target datalayout = "e-m:e-p270:32:32-p271:32:32-p272:64:64-i64:64-i128:128-f80:128-n8:16:32:64-S128"
target triple = "x86_64-unknown-linux-gnu"

%"class.rocksdb::HistogramWindowingImpl" = type { %"class.rocksdb::Histogram", %"class.std::shared_ptr", %"class.std::mutex", %"struct.rocksdb::HistogramStat", %"class.std::unique_ptr", %"struct.std::atomic", %"struct.std::atomic", i64, i64, i64 }
%"class.rocksdb::Histogram" = type { ptr }
%"class.std::shared_ptr" = type { %"class.std::__shared_ptr" }
%"class.std::__shared_ptr" = type { ptr, %"class.std::__shared_count" }
%"class.std::__shared_count" = type { ptr }
%"class.std::mutex" = type { %"class.std::__mutex_base" }
%"class.std::__mutex_base" = type { %union.pthread_mutex_t }
%union.pthread_mutex_t = type { %struct.__pthread_mutex_s }
%struct.__pthread_mutex_s = type { i32, i32, i32, i32, i32, i16, i16, %struct.__pthread_internal_list }
%struct.__pthread_internal_list = type { ptr, ptr }
%"struct.rocksdb::HistogramStat" = type { %"struct.std::atomic", %"struct.std::atomic", %"struct.std::atomic", %"struct.std::atomic", %"struct.std::atomic", [109 x %"struct.std::atomic"], i64 }
%"class.std::unique_ptr" = type { %"struct.std::__uniq_ptr_data" }
%"struct.std::__uniq_ptr_data" = type { %"class.std::__uniq_ptr_impl" }
%"class.std::__uniq_ptr_impl" = type { %"class.std::tuple" }
%"class.std::tuple" = type { %"struct.std::_Tuple_impl" }
%"struct.std::_Tuple_impl" = type { %"struct.std::_Head_base.1" }
%"struct.std::_Head_base.1" = type { ptr }
%"struct.std::atomic" = type { %"struct.std::__atomic_base" }
%"struct.std::__atomic_base" = type { i64 }

; Function Attrs: noreturn nounwind uwtable
define linkonce_odr hidden void @__clang_call_terminate(ptr noundef %0) #9 comdat {
  %2 = call ptr @__cxa_begin_catch(ptr %0) #12
  call void @_ZSt9terminatev() #15
  unreachable
}

; Function Attrs: mustprogress nounwind uwtable
define linkonce_odr noundef i32 @_ZStanSt12memory_orderSt23__memory_order_modifier(i32 noundef %__m, i32 noundef %__mod) #1 comdat {
entry:
  %__m.addr = alloca i32, align 4
  %__mod.addr = alloca i32, align 4
  store i32 %__m, ptr %__m.addr, align 4
  store i32 %__mod, ptr %__mod.addr, align 4
  %0 = load i32, ptr %__m.addr, align 4
  %1 = load i32, ptr %__mod.addr, align 4
  %and = and i32 %0, %1
  ret i32 %and
}

; Function Attrs: mustprogress nounwind uwtable
define linkonce_odr noundef i64 @_ZNK7rocksdb13HistogramStat3numEv(ptr noundef nonnull align 8 dereferenceable(920) %this) #1 comdat align 2 personality ptr @__gxx_personality_v0 {
entry:
  %this.addr.i = alloca ptr, align 8
  %__m.addr.i = alloca i32, align 4
  %__b.i = alloca i32, align 4
  %atomic-temp.i = alloca i64, align 8
  %this.addr = alloca ptr, align 8
  store ptr %this, ptr %this.addr, align 8
  %this1 = load ptr, ptr %this.addr, align 8
  %num_ = getelementptr inbounds %"struct.rocksdb::HistogramStat", ptr %this1, i32 0, i32 2
  store ptr %num_, ptr %this.addr.i, align 8
  store i32 0, ptr %__m.addr.i, align 4
  %this1.i = load ptr, ptr %this.addr.i, align 8
  %0 = load i32, ptr %__m.addr.i, align 4
  %call.i = invoke noundef i32 @_ZStanSt12memory_orderSt23__memory_order_modifier(i32 noundef %0, i32 noundef 65535)
          to label %invoke.cont.i unwind label %terminate.lpad.i

invoke.cont.i:                                    ; preds = %entry
  store i32 %call.i, ptr %__b.i, align 4
  %1 = load i32, ptr %__m.addr.i, align 4
  switch i32 %1, label %monotonic.i [
    i32 1, label %acquire.i
    i32 2, label %acquire.i
    i32 5, label %seqcst.i
  ]

monotonic.i:                                      ; preds = %invoke.cont.i
  %2 = load atomic i64, ptr %this1.i monotonic, align 8
  store i64 %2, ptr %atomic-temp.i, align 8
  br label %_ZNKSt13__atomic_baseImE4loadESt12memory_order.exit

acquire.i:                                        ; preds = %invoke.cont.i, %invoke.cont.i
  %3 = load atomic i64, ptr %this1.i acquire, align 8
  store i64 %3, ptr %atomic-temp.i, align 8
  br label %_ZNKSt13__atomic_baseImE4loadESt12memory_order.exit

seqcst.i:                                         ; preds = %invoke.cont.i
  %4 = load atomic i64, ptr %this1.i seq_cst, align 8
  store i64 %4, ptr %atomic-temp.i, align 8
  br label %_ZNKSt13__atomic_baseImE4loadESt12memory_order.exit

terminate.lpad.i:                                 ; preds = %entry
  %5 = landingpad { ptr, i32 }
          catch ptr null
  %6 = extractvalue { ptr, i32 } %5, 0
  call void @__clang_call_terminate(ptr %6) #15
  unreachable

_ZNKSt13__atomic_baseImE4loadESt12memory_order.exit: ; preds = %seqcst.i, %acquire.i, %monotonic.i
  %7 = load i64, ptr %atomic-temp.i, align 8
  ret i64 %7
}

; Function Attrs: mustprogress uwtable
define noundef double @_ZNK7rocksdb22HistogramWindowingImpl10PercentileEd(ptr noundef nonnull align 8 dereferenceable(1032) %this, double noundef %p) unnamed_addr #0 align 2 {
entry:
  %retval = alloca double, align 8
  %this.addr = alloca ptr, align 8
  %p.addr = alloca double, align 8
  %retry = alloca i32, align 4
  %start_num = alloca i64, align 8
  %result = alloca double, align 8
  store ptr %this, ptr %this.addr, align 8
  store double %p, ptr %p.addr, align 8
  %this1 = load ptr, ptr %this.addr, align 8
  store i32 0, ptr %retry, align 4
  br label %for.cond

for.cond:                                         ; preds = %for.inc, %entry
  %0 = load i32, ptr %retry, align 4
  %cmp = icmp slt i32 %0, 3
  br i1 %cmp, label %for.body, label %for.end

for.body:                                         ; preds = %for.cond
  %stats_ = getelementptr inbounds %"class.rocksdb::HistogramWindowingImpl", ptr %this1, i32 0, i32 3
  %call = call noundef i64 @_ZNK7rocksdb13HistogramStat3numEv(ptr noundef nonnull align 8 dereferenceable(920) %stats_)
  store i64 %call, ptr %start_num, align 8
  %stats_2 = getelementptr inbounds %"class.rocksdb::HistogramWindowingImpl", ptr %this1, i32 0, i32 3
  %1 = load double, ptr %p.addr, align 8
  %call3 = call noundef double @_ZNK7rocksdb13HistogramStat10PercentileEd(ptr noundef nonnull align 8 dereferenceable(920) %stats_2, double noundef %1)
  store double %call3, ptr %result, align 8
  %stats_4 = getelementptr inbounds %"class.rocksdb::HistogramWindowingImpl", ptr %this1, i32 0, i32 3
  %call5 = call noundef i64 @_ZNK7rocksdb13HistogramStat3numEv(ptr noundef nonnull align 8 dereferenceable(920) %stats_4)
  %2 = load i64, ptr %start_num, align 8
  %cmp6 = icmp uge i64 %call5, %2
  br i1 %cmp6, label %if.then, label %if.end

if.then:                                          ; preds = %for.body
  %3 = load double, ptr %result, align 8
  store double %3, ptr %retval, align 8
  br label %return

if.end:                                           ; preds = %for.body
  br label %for.inc

for.inc:                                          ; preds = %if.end
  %4 = load i32, ptr %retry, align 4
  %inc = add nsw i32 %4, 1
  store i32 %inc, ptr %retry, align 4
  br label %for.cond, !llvm.loop !7

for.end:                                          ; preds = %for.cond
  store double 0.000000e+00, ptr %retval, align 8
  br label %return

return:                                           ; preds = %for.end, %if.then
  %5 = load double, ptr %retval, align 8
  ret double %5
}