; Function Attrs: mustprogress uwtable
define noundef double @_ZNK7rocksdb22HistogramWindowingImpl10PercentileEd(ptr noundef nonnull align 8 dereferenceable(1032) %this, double noundef %p) unnamed_addr #0 align 2 personality ptr @__gxx_personality_v0 {
entry:
  %stats_ = getelementptr inbounds i8, ptr %this, i64 64
  %num_.i = getelementptr inbounds i8, ptr %this, i64 80
  br label %for.body

for.cond:                                         ; preds = %for.body
  %inc = add nuw nsw i32 %retry.03, 1
  %exitcond.not = icmp eq i32 %inc, 3
  br i1 %exitcond.not, label %return, label %for.body, !llvm.loop !7

for.body:                                         ; preds = %entry, %for.cond
  %retry.03 = phi i32 [ 0, %entry ], [ %inc, %for.cond ]
  %0 = load atomic i64, ptr %num_.i monotonic, align 8
  %call3 = tail call noundef double @_ZNK7rocksdb13HistogramStat10PercentileEd(ptr noundef nonnull align 8 dereferenceable(920) %stats_, double noundef %p)
  %1 = load atomic i64, ptr %num_.i monotonic, align 8
  %cmp6.not = icmp ult i64 %1, %0
  br i1 %cmp6.not, label %for.cond, label %return

return:                                           ; preds = %for.cond, %for.body
  %retval.0 = phi double [ %call3, %for.body ], [ 0.000000e+00, %for.cond ]
  ret double %retval.0
}